ccopy_reg
_reconstructor
p0
(cpandas.core.frame
DataFrame
p1
c__builtin__
object
p2
Ntp3
Rp4
(dp5
S'_metadata'
p6
(lp7
sS'_typ'
p8
S'dataframe'
p9
sS'_data'
p10
g0
(cpandas.core.internals.managers
BlockManager
p11
g2
Ntp12
Rp13
((lp14
cpandas.core.indexes.base
_new_Index
p15
(cpandas.core.indexes.base
Index
p16
(dp17
S'data'
p18
cnumpy.core.multiarray
_reconstruct
p19
(cnumpy
ndarray
p20
(I0
tp21
S'b'
p22
tp23
Rp24
(I1
(I1
tp25
cnumpy
dtype
p26
(S'O8'
p27
I0
I1
tp28
Rp29
(I3
S'|'
p30
NNNI-1
I-1
I63
tp31
bI00
(lp32
S'extrapolated gaps'
p33
atp34
bsS'name'
p35
Nstp36
Rp37
ag15
(cpandas.core.indexes.numeric
Int64Index
p38
(dp39
g18
g19
(g20
(I0
tp40
g22
tp41
Rp42
(I1
(I5
tp43
g26
(S'i8'
p44
I0
I1
tp45
Rp46
(I3
S'<'
p47
NNNI-1
I-1
I0
tp48
bI00
S'\x01\x00\x00\x00\x00\x00\x00\x00\x02\x00\x00\x00\x00\x00\x00\x00\x03\x00\x00\x00\x00\x00\x00\x00\x04\x00\x00\x00\x00\x00\x00\x00\x05\x00\x00\x00\x00\x00\x00\x00'
p49
tp50
bsg35
Nstp51
Rp52
a(lp53
g19
(g20
(I0
tp54
g22
tp55
Rp56
(I1
(I1
I5
tp57
g26
(S'f8'
p58
I0
I1
tp59
Rp60
(I3
S'<'
p61
NNNI-1
I-1
I0
tp62
bI00
S'\xe0F\x0f$\xdc:\xb1?\xc0f\xe4\xb6\xc9\x9e\xb5?\xd0-\xe6\xeab\xcb\xca?\x8c\x90\xd5e#\xd3\xd1?\xd6\xec\xbcQF\xad\xe3?'
p63
tp64
ba(lp65
g15
(g16
(dp66
g18
g19
(g20
(I0
tp67
g22
tp68
Rp69
(I1
(I1
tp70
g29
I00
(lp71
g33
atp72
bsg35
Nstp73
Rp74
a(dp75
S'0.14.1'
p76
(dp77
S'axes'
p78
g14
sS'blocks'
p79
(lp80
(dp81
S'mgr_locs'
p82
c__builtin__
slice
p83
(I0
I1
I1
tp84
Rp85
sS'values'
p86
g56
sasstp87
bsb.